; Function Attrs: mustprogress nounwind uwtable
define hidden noundef ptr @_ZN14MethodCounters23allocate_with_exceptionERK12methodHandleP10JavaThread(ptr noundef nonnull align 8 dereferenceable(16) %0, ptr noundef %1) local_unnamed_addr #0 align 2 {
  %3 = load ptr, ptr %0, align 8
  %4 = getelementptr inbounds i8, ptr %3, i64 8
  %5 = load ptr, ptr %4, align 8
  %6 = getelementptr inbounds i8, ptr %5, i64 8
  %7 = load ptr, ptr %6, align 8
  %8 = getelementptr inbounds i8, ptr %7, i64 24
  %9 = load ptr, ptr %8, align 8
  %10 = getelementptr inbounds i8, ptr %9, i64 152
  %11 = load ptr, ptr %10, align 8
  %12 = tail call noundef ptr @_ZN12MetaspaceObjnwEmP15ClassLoaderDatamNS_4TypeEP10JavaThread(i64 noundef 48, ptr noundef %11, i64 noundef 6, i32 noundef 13, ptr noundef %1) #4
  %13 = icmp eq ptr %12, null
  br i1 %13, label %15, label %14

14:                                               ; preds = %2
  tail call void @_ZN14MethodCountersC2ERK12methodHandle(ptr noundef nonnull align 8 dereferenceable(46) %12, ptr noundef nonnull align 8 dereferenceable(16) %0)
  br label %15

15:                                               ; preds = %14, %2
  ret ptr %12
}